; Function Attrs: mustprogress nounwind uwtable
define void @_ZN14DecodeAsDialogD2Ev(ptr noundef nonnull align 8 dereferenceable(88) %0) unnamed_addr #4 align 2 {
  store ptr getelementptr inbounds ({ [59 x ptr], [10 x ptr] }, ptr @_ZTV14DecodeAsDialog, i64 0, i32 0, i64 2), ptr %0, align 8
  %2 = getelementptr inbounds i8, ptr %0, i64 16
  store ptr getelementptr inbounds ({ [59 x ptr], [10 x ptr] }, ptr @_ZTV14DecodeAsDialog, i64 0, i32 1, i64 2), ptr %2, align 8
  %3 = getelementptr inbounds i8, ptr %0, i64 64
  %4 = load ptr, ptr %3, align 8
  %5 = icmp eq ptr %4, null
  br i1 %5, label %7, label %6

6:                                                ; preds = %1
  tail call void @_ZdlPv(ptr noundef nonnull %4) #16
  br label %7

7:                                                ; preds = %6, %1
  %8 = getelementptr inbounds i8, ptr %0, i64 72
  %9 = load ptr, ptr %8, align 8
  %10 = icmp eq ptr %9, null
  br i1 %10, label %15, label %11

11:                                               ; preds = %7
  %12 = load ptr, ptr %9, align 8
  %13 = getelementptr inbounds i8, ptr %12, i64 32
  %14 = load ptr, ptr %13, align 8
  tail call void %14(ptr noundef nonnull align 8 dereferenceable(96) %9) #15
  br label %15

15:                                               ; preds = %11, %7
  %16 = getelementptr inbounds i8, ptr %0, i64 80
  %17 = load ptr, ptr %16, align 8
  %18 = icmp eq ptr %17, null
  br i1 %18, label %23, label %19

19:                                               ; preds = %15
  %20 = load ptr, ptr %17, align 8
  %21 = getelementptr inbounds i8, ptr %20, i64 32
  %22 = load ptr, ptr %21, align 8
  tail call void %22(ptr noundef nonnull align 8 dereferenceable(48) %17) #15
  br label %23

23:                                               ; preds = %19, %15
  tail call void @_ZN19GeometryStateDialogD2Ev(ptr noundef nonnull align 8 dereferenceable(64) %0) #15
  ret void
}